; Function Attrs: nounwind uwtable
define dso_local void @removeClientFromTimeoutTable(ptr noundef %0) local_unnamed_addr #0 {
  %2 = alloca [16 x i8], align 16
  %3 = getelementptr inbounds nuw i8, ptr %0, i64 8
  %4 = load i64, ptr %3, align 8, !tbaa !5
  %5 = and i64 %4, 274877906944
  %.not = icmp eq i64 %5, 0
  br i1 %.not, label %14, label %6

6:                                                ; preds = %1
  %7 = and i64 %4, -274877906945
  store i64 %7, ptr %3, align 8, !tbaa !5
  %8 = getelementptr inbounds nuw i8, ptr %0, i64 488
  %9 = load i64, ptr %8, align 8, !tbaa !28
  call void @llvm.lifetime.start.p0(i64 16, ptr nonnull %2) #4
  %10 = tail call i64 @intrev64(i64 noundef %9) #4
  store i64 %10, ptr %2, align 16
  %11 = getelementptr inbounds nuw i8, ptr %2, i64 8
  store ptr %0, ptr %11, align 8
  %12 = load ptr, ptr getelementptr inbounds nuw (i8, ptr @server, i64 1504), align 8, !tbaa !53
  %13 = call i32 @raxRemove(ptr noundef %12, ptr noundef nonnull %2, i64 noundef 16, ptr noundef null) #4
  call void @llvm.lifetime.end.p0(i64 16, ptr nonnull %2) #4
  br label %14

14:                                               ; preds = %1, %6
  ret void
}